; Function Attrs: mustprogress nounwind uwtable
define dso_local noundef ptr @_ZNK4llvm24TargetLoweringObjectFile23getTTypeGlobalReferenceEPKNS_11GlobalValueEjRKNS_13TargetMachineEPNS_17MachineModuleInfoERNS_10MCStreamerE(ptr noundef nonnull readonly align 8 captures(none) dereferenceable(968) %0, ptr noundef %1, i32 noundef %2, ptr noundef nonnull align 8 dereferenceable(1232) %3, ptr readnone captures(none) %4, ptr noundef nonnull align 8 dereferenceable(288) %5) unnamed_addr #0 align 2 {
  %7 = tail call noundef ptr @_ZNK4llvm13TargetMachine9getSymbolEPKNS_11GlobalValueE(ptr noundef nonnull align 8 dereferenceable(1232) %3, ptr noundef %1) #16
  %8 = getelementptr inbounds nuw i8, ptr %0, i64 904
  %9 = load ptr, ptr %8, align 8
  %10 = tail call noundef ptr @_ZN4llvm15MCSymbolRefExpr6createEPKNS_8MCSymbolENS0_11VariantKindERNS_9MCContextENS_5SMLocE(ptr noundef %7, i16 noundef zeroext 0, ptr noundef nonnull align 8 dereferenceable(2432) %9, ptr null) #16
  %11 = and i32 %2, 112
  switch i32 %11, label %12 [
    i32 0, label %_ZNK4llvm24TargetLoweringObjectFile17getTTypeReferenceEPKNS_15MCSymbolRefExprEjRNS_10MCStreamerE.exit
    i32 16, label %13
  ]

12:                                               ; preds = %6
  tail call void @_ZN4llvm18report_fatal_errorEPKcb(ptr noundef nonnull @.str.5, i1 noundef zeroext true) #19
  unreachable

13:                                               ; preds = %6
  %14 = load ptr, ptr %8, align 8
  %15 = tail call noundef ptr @_ZN4llvm9MCContext16createTempSymbolEv(ptr noundef nonnull align 8 dereferenceable(2432) %14) #16
  %16 = load ptr, ptr %5, align 8
  %17 = getelementptr inbounds nuw i8, ptr %16, i64 200
  %18 = load ptr, ptr %17, align 8
  tail call void %18(ptr noundef nonnull align 8 dereferenceable(288) %5, ptr noundef %15, ptr null) #16
  %19 = load ptr, ptr %8, align 8
  %20 = tail call noundef ptr @_ZN4llvm15MCSymbolRefExpr6createEPKNS_8MCSymbolENS0_11VariantKindERNS_9MCContextENS_5SMLocE(ptr noundef %15, i16 noundef zeroext 0, ptr noundef nonnull align 8 dereferenceable(2432) %19, ptr null) #16
  %21 = load ptr, ptr %8, align 8
  %22 = tail call noundef ptr @_ZN4llvm12MCBinaryExpr6createENS0_6OpcodeEPKNS_6MCExprES4_RNS_9MCContextENS_5SMLocE(i32 noundef 18, ptr noundef %10, ptr noundef %20, ptr noundef nonnull align 8 dereferenceable(2432) %21, ptr null) #16
  br label %_ZNK4llvm24TargetLoweringObjectFile17getTTypeReferenceEPKNS_15MCSymbolRefExprEjRNS_10MCStreamerE.exit

_ZNK4llvm24TargetLoweringObjectFile17getTTypeReferenceEPKNS_15MCSymbolRefExprEjRNS_10MCStreamerE.exit: ; preds = %6, %13
  %.0.i = phi ptr [ %22, %13 ], [ %10, %6 ]
  ret ptr %.0.i
}